; ModuleID = '12/76.c'
source_filename = "12/76.c"
target datalayout = "e-m:e-p270:32:32-p271:32:32-p272:64:64-i64:64-f80:128-n8:16:32:64-S128"
target triple = "x86_64-pc-linux-gnu"

@.str = private unnamed_addr constant [3 x i8] c"%d\00", align 1
@.str.1 = private unnamed_addr constant [4 x i8] c"%d\0A\00", align 1

; Function Attrs: noinline nounwind uwtable
define dso_local i32 @main() #0 {
  %1 = alloca i32, align 4
  %2 = alloca [100 x [100 x i32]], align 16
  %3 = alloca i32, align 4
  %4 = alloca i32, align 4
  %5 = alloca i32, align 4
  %6 = alloca [100 x i32], align 16
  %7 = alloca [100 x i32], align 16
  %8 = alloca i32, align 4
  %9 = alloca i32, align 4
  %10 = alloca i32, align 4
  store i32 0, i32* %1, align 4
  store i32 0, i32* %3, align 4
  br label %11

11:                                               ; preds = %58, %0
  %12 = load i32, i32* %3, align 4
  %13 = icmp slt i32 %12, 100
  br i1 %13, label %14, label %61

14:                                               ; preds = %11
  %15 = load i32, i32* %3, align 4
  %16 = sext i32 %15 to i64
  %17 = getelementptr inbounds [100 x [100 x i32]], [100 x [100 x i32]]* %2, i64 0, i64 %16
  %18 = getelementptr inbounds [100 x i32], [100 x i32]* %17, i64 0, i64 0
  %19 = call i32 (i8*, ...) @__isoc99_scanf(i8* getelementptr inbounds ([3 x i8], [3 x i8]* @.str, i64 0, i64 0), i32* %18)
  %20 = load i32, i32* %3, align 4
  %21 = sext i32 %20 to i64
  %22 = getelementptr inbounds [100 x [100 x i32]], [100 x [100 x i32]]* %2, i64 0, i64 %21
  %23 = getelementptr inbounds [100 x i32], [100 x i32]* %22, i64 0, i64 0
  %24 = load i32, i32* %23, align 16
  %25 = icmp eq i32 %24, -1
  br i1 %25, label %26, label %27

26:                                               ; preds = %14
  br label %61

27:                                               ; preds = %14
  store i32 1, i32* %5, align 4
  br label %28

28:                                               ; preds = %53, %27
  %29 = load i32, i32* %5, align 4
  %30 = icmp slt i32 %29, 100
  br i1 %30, label %31, label %56

31:                                               ; preds = %28
  %32 = load i32, i32* %3, align 4
  %33 = sext i32 %32 to i64
  %34 = getelementptr inbounds [100 x [100 x i32]], [100 x [100 x i32]]* %2, i64 0, i64 %33
  %35 = load i32, i32* %5, align 4
  %36 = sext i32 %35 to i64
  %37 = getelementptr inbounds [100 x i32], [100 x i32]* %34, i64 0, i64 %36
  %38 = call i32 (i8*, ...) @__isoc99_scanf(i8* getelementptr inbounds ([3 x i8], [3 x i8]* @.str, i64 0, i64 0), i32* %37)
  %39 = load i32, i32* %3, align 4
  %40 = sext i32 %39 to i64
  %41 = getelementptr inbounds [100 x [100 x i32]], [100 x [100 x i32]]* %2, i64 0, i64 %40
  %42 = load i32, i32* %5, align 4
  %43 = sext i32 %42 to i64
  %44 = getelementptr inbounds [100 x i32], [100 x i32]* %41, i64 0, i64 %43
  %45 = load i32, i32* %44, align 4
  %46 = icmp eq i32 %45, 0
  br i1 %46, label %47, label %52

47:                                               ; preds = %31
  %48 = load i32, i32* %5, align 4
  %49 = load i32, i32* %3, align 4
  %50 = sext i32 %49 to i64
  %51 = getelementptr inbounds [100 x i32], [100 x i32]* %7, i64 0, i64 %50
  store i32 %48, i32* %51, align 4
  br label %56

52:                                               ; preds = %31
  br label %53

53:                                               ; preds = %52
  %54 = load i32, i32* %5, align 4
  %55 = add nsw i32 %54, 1
  store i32 %55, i32* %5, align 4
  br label %28

56:                                               ; preds = %47, %28
  br label %57

57:                                               ; preds = %56
  br label %58

58:                                               ; preds = %57
  %59 = load i32, i32* %3, align 4
  %60 = add nsw i32 %59, 1
  store i32 %60, i32* %3, align 4
  br label %11

61:                                               ; preds = %26, %11
  store i32 0, i32* %4, align 4
  br label %62

62:                                               ; preds = %135, %61
  %63 = load i32, i32* %4, align 4
  %64 = load i32, i32* %3, align 4
  %65 = icmp slt i32 %63, %64
  br i1 %65, label %66, label %138

66:                                               ; preds = %62
  %67 = load i32, i32* %4, align 4
  %68 = sext i32 %67 to i64
  %69 = getelementptr inbounds [100 x i32], [100 x i32]* %6, i64 0, i64 %68
  store i32 0, i32* %69, align 4
  store i32 0, i32* %8, align 4
  br label %70

70:                                               ; preds = %131, %66
  %71 = load i32, i32* %8, align 4
  %72 = load i32, i32* %5, align 4
  %73 = icmp slt i32 %71, %72
  br i1 %73, label %74, label %134

74:                                               ; preds = %70
  %75 = load i32, i32* %8, align 4
  store i32 %75, i32* %10, align 4
  br label %76

76:                                               ; preds = %127, %74
  %77 = load i32, i32* %10, align 4
  %78 = load i32, i32* %4, align 4
  %79 = sext i32 %78 to i64
  %80 = getelementptr inbounds [100 x i32], [100 x i32]* %7, i64 0, i64 %79
  %81 = load i32, i32* %80, align 4
  %82 = icmp slt i32 %77, %81
  br i1 %82, label %83, label %130

83:                                               ; preds = %76
  %84 = load i32, i32* %4, align 4
  %85 = sext i32 %84 to i64
  %86 = getelementptr inbounds [100 x [100 x i32]], [100 x [100 x i32]]* %2, i64 0, i64 %85
  %87 = load i32, i32* %8, align 4
  %88 = sext i32 %87 to i64
  %89 = getelementptr inbounds [100 x i32], [100 x i32]* %86, i64 0, i64 %88
  %90 = load i32, i32* %89, align 4
  %91 = mul nsw i32 2, %90
  %92 = load i32, i32* %4, align 4
  %93 = sext i32 %92 to i64
  %94 = getelementptr inbounds [100 x [100 x i32]], [100 x [100 x i32]]* %2, i64 0, i64 %93
  %95 = load i32, i32* %10, align 4
  %96 = sext i32 %95 to i64
  %97 = getelementptr inbounds [100 x i32], [100 x i32]* %94, i64 0, i64 %96
  %98 = load i32, i32* %97, align 4
  %99 = icmp eq i32 %91, %98
  br i1 %99, label %117, label %100

100:                                              ; preds = %83
  %101 = load i32, i32* %4, align 4
  %102 = sext i32 %101 to i64
  %103 = getelementptr inbounds [100 x [100 x i32]], [100 x [100 x i32]]* %2, i64 0, i64 %102
  %104 = load i32, i32* %10, align 4
  %105 = sext i32 %104 to i64
  %106 = getelementptr inbounds [100 x i32], [100 x i32]* %103, i64 0, i64 %105
  %107 = load i32, i32* %106, align 4
  %108 = mul nsw i32 2, %107
  %109 = load i32, i32* %4, align 4
  %110 = sext i32 %109 to i64
  %111 = getelementptr inbounds [100 x [100 x i32]], [100 x [100 x i32]]* %2, i64 0, i64 %110
  %112 = load i32, i32* %8, align 4
  %113 = sext i32 %112 to i64
  %114 = getelementptr inbounds [100 x i32], [100 x i32]* %111, i64 0, i64 %113
  %115 = load i32, i32* %114, align 4
  %116 = icmp eq i32 %108, %115
  br i1 %116, label %117, label %126

117:                                              ; preds = %100, %83
  %118 = load i32, i32* %4, align 4
  %119 = sext i32 %118 to i64
  %120 = getelementptr inbounds [100 x i32], [100 x i32]* %6, i64 0, i64 %119
  %121 = load i32, i32* %120, align 4
  %122 = add nsw i32 %121, 1
  %123 = load i32, i32* %4, align 4
  %124 = sext i32 %123 to i64
  %125 = getelementptr inbounds [100 x i32], [100 x i32]* %6, i64 0, i64 %124
  store i32 %122, i32* %125, align 4
  br label %126

126:                                              ; preds = %117, %100
  br label %127

127:                                              ; preds = %126
  %128 = load i32, i32* %10, align 4
  %129 = add nsw i32 %128, 1
  store i32 %129, i32* %10, align 4
  br label %76

130:                                              ; preds = %76
  br label %131

131:                                              ; preds = %130
  %132 = load i32, i32* %8, align 4
  %133 = add nsw i32 %132, 1
  store i32 %133, i32* %8, align 4
  br label %70

134:                                              ; preds = %70
  br label %135

135:                                              ; preds = %134
  %136 = load i32, i32* %4, align 4
  %137 = add nsw i32 %136, 1
  store i32 %137, i32* %4, align 4
  br label %62

138:                                              ; preds = %62
  store i32 0, i32* %9, align 4
  br label %139

139:                                              ; preds = %149, %138
  %140 = load i32, i32* %9, align 4
  %141 = load i32, i32* %3, align 4
  %142 = icmp slt i32 %140, %141
  br i1 %142, label %143, label %152

143:                                              ; preds = %139
  %144 = load i32, i32* %9, align 4
  %145 = sext i32 %144 to i64
  %146 = getelementptr inbounds [100 x i32], [100 x i32]* %6, i64 0, i64 %145
  %147 = load i32, i32* %146, align 4
  %148 = call i32 (i8*, ...) @printf(i8* getelementptr inbounds ([4 x i8], [4 x i8]* @.str.1, i64 0, i64 0), i32 %147)
  br label %149

149:                                              ; preds = %143
  %150 = load i32, i32* %9, align 4
  %151 = add nsw i32 %150, 1
  store i32 %151, i32* %9, align 4
  br label %139

152:                                              ; preds = %139
  ret i32 0
}

declare dso_local i32 @__isoc99_scanf(i8*, ...) #1

declare dso_local i32 @printf(i8*, ...) #1


!llvm.module.flags = !{!0}
!llvm.ident = !{!1}

!0 = !{i32 1, !"wchar_size", i32 4}
!1 = !{!"clang version 10.0.0-4ubuntu1 "}
